; Function Attrs: mustprogress nounwind uwtable
define dso_local noundef zeroext i1 @_ZNK4llvm15TargetInstrInfo22getExtractSubregInputsERKNS_12MachineInstrEjRNS0_19RegSubRegPairAndIdxE(ptr noundef nonnull align 8 dereferenceable(80) %0, ptr noundef nonnull align 8 dereferenceable(70) %1, i32 noundef %2, ptr noundef nonnull align 4 dereferenceable(12) %3) local_unnamed_addr #0 align 2 {
  %5 = getelementptr inbounds nuw i8, ptr %1, i64 68
  %6 = load i16, ptr %5, align 4
  %7 = icmp eq i16 %6, 8
  br i1 %7, label %13, label %8

8:                                                ; preds = %4
  %9 = load ptr, ptr %0, align 8
  %10 = getelementptr inbounds i8, ptr %9, i64 672
  %11 = load ptr, ptr %10, align 8
  %12 = tail call noundef zeroext i1 %11(ptr noundef nonnull align 8 dereferenceable(80) %0, ptr noundef nonnull align 8 dereferenceable(70) %1, i32 noundef %2, ptr noundef nonnull align 4 dereferenceable(12) %3) #26
  br label %30

13:                                               ; preds = %4
  %14 = getelementptr inbounds nuw i8, ptr %1, i64 32
  %15 = load ptr, ptr %14, align 8
  %16 = getelementptr inbounds i8, ptr %15, i64 32
  %17 = load i32, ptr %16, align 8
  %18 = and i32 %17, 268435456
  %.not = icmp eq i32 %18, 0
  br i1 %.not, label %19, label %30

19:                                               ; preds = %13
  %20 = getelementptr inbounds i8, ptr %15, i64 36
  %21 = load i32, ptr %20, align 4
  store i32 %21, ptr %3, align 4
  %22 = load i32, ptr %16, align 8
  %23 = lshr i32 %22, 8
  %24 = and i32 %23, 4095
  %25 = getelementptr inbounds nuw i8, ptr %3, i64 4
  store i32 %24, ptr %25, align 4
  %26 = getelementptr inbounds i8, ptr %15, i64 80
  %27 = load i64, ptr %26, align 8
  %28 = trunc i64 %27 to i32
  %29 = getelementptr inbounds nuw i8, ptr %3, i64 8
  store i32 %28, ptr %29, align 4
  br label %30

30:                                               ; preds = %13, %19, %8
  %.0 = phi i1 [ true, %19 ], [ %12, %8 ], [ false, %13 ]
  ret i1 %.0
}